target datalayout = "e-m:e-p270:32:32-p271:32:32-p272:64:64-i64:64-i128:128-f80:128-n8:16:32:64-S128"
target triple = "x86_64-pc-linux-gnu"

%"class.google::protobuf::internal::MapFieldBase" = type <{ ptr, ptr, ptr, %"class.google::protobuf::internal::WrappedMutex", %"struct.std::atomic", [4 x i8] }>
%"class.google::protobuf::internal::WrappedMutex" = type { %"class.std::mutex" }
%"class.std::mutex" = type { %"class.std::__mutex_base" }
%"class.std::__mutex_base" = type { %union.pthread_mutex_t }
%union.pthread_mutex_t = type { %struct.__pthread_mutex_s }
%struct.__pthread_mutex_s = type { i32, i32, i32, i32, i32, i16, i16, %struct.__pthread_internal_list }
%struct.__pthread_internal_list = type { ptr, ptr }
%"struct.std::atomic" = type { i32 }

; Function Attrs: inlinehint mustprogress nounwind uwtable
define internal noundef i32 @_ZL18__gthread_active_pv() #10 {
  ret i32 1
}

; Function Attrs: inlinehint mustprogress nounwind uwtable
define internal noundef i32 @_ZL22__gthread_mutex_unlockP15pthread_mutex_t(ptr noundef %0) #10 {
  %2 = alloca i32, align 4
  %3 = alloca ptr, align 8
  store ptr %0, ptr %3, align 8, !tbaa !26
  %4 = call noundef i32 @_ZL18__gthread_active_pv()
  %5 = icmp ne i32 %4, 0
  br i1 %5, label %6, label %9

6:                                                ; preds = %1
  %7 = load ptr, ptr %3, align 8, !tbaa !26
  %8 = call i32 @pthread_mutex_unlock(ptr noundef %7) #3
  store i32 %8, ptr %2, align 4
  br label %10

9:                                                ; preds = %1
  store i32 0, ptr %2, align 4
  br label %10

10:                                               ; preds = %9, %6
  %11 = load i32, ptr %2, align 4
  ret i32 %11
}

; Function Attrs: inlinehint mustprogress uwtable
define internal noundef i32 @_ZL20__gthread_mutex_lockP15pthread_mutex_t(ptr noundef %0) #11 {
  %2 = alloca i32, align 4
  %3 = alloca ptr, align 8
  store ptr %0, ptr %3, align 8, !tbaa !26
  %4 = call noundef i32 @_ZL18__gthread_active_pv()
  %5 = icmp ne i32 %4, 0
  br i1 %5, label %6, label %9

6:                                                ; preds = %1
  %7 = load ptr, ptr %3, align 8, !tbaa !26
  %8 = call i32 @pthread_mutex_lock(ptr noundef %7) #3
  store i32 %8, ptr %2, align 4
  br label %10

9:                                                ; preds = %1
  store i32 0, ptr %2, align 4
  br label %10

10:                                               ; preds = %9, %6
  %11 = load i32, ptr %2, align 4
  ret i32 %11
}

; Function Attrs: mustprogress uwtable
define linkonce_odr hidden void @_ZNSt5mutex6unlockEv(ptr noundef nonnull align 8 dereferenceable(40) %0) #7 comdat align 2 {
  %2 = alloca ptr, align 8
  store ptr %0, ptr %2, align 8, !tbaa !128
  %3 = load ptr, ptr %2, align 8
  %4 = getelementptr inbounds nuw %"class.std::__mutex_base", ptr %3, i32 0, i32 0
  %5 = call noundef i32 @_ZL22__gthread_mutex_unlockP15pthread_mutex_t(ptr noundef %4)
  ret void
}

; Function Attrs: mustprogress uwtable
define linkonce_odr hidden void @_ZNSt5mutex4lockEv(ptr noundef nonnull align 8 dereferenceable(40) %0) #7 comdat align 2 {
  %2 = alloca ptr, align 8
  %3 = alloca i32, align 4
  store ptr %0, ptr %2, align 8, !tbaa !128
  %4 = load ptr, ptr %2, align 8
  call void @llvm.lifetime.start.p0(i64 4, ptr %3) #3
  %5 = getelementptr inbounds nuw %"class.std::__mutex_base", ptr %4, i32 0, i32 0
  %6 = call noundef i32 @_ZL20__gthread_mutex_lockP15pthread_mutex_t(ptr noundef %5)
  store i32 %6, ptr %3, align 4, !tbaa !41
  %7 = load i32, ptr %3, align 4, !tbaa !41
  %8 = icmp ne i32 %7, 0
  br i1 %8, label %9, label %11

9:                                                ; preds = %1
  %10 = load i32, ptr %3, align 4, !tbaa !41
  call void @_ZSt20__throw_system_errori(i32 noundef %10) #25
  unreachable

11:                                               ; preds = %1
  call void @llvm.lifetime.end.p0(i64 4, ptr %3) #3
  ret void
}

; Function Attrs: mustprogress uwtable
define linkonce_odr hidden void @_ZN6google8protobuf8internal12WrappedMutex6UnlockEv(ptr noundef nonnull align 8 dereferenceable(40) %0) #7 comdat align 2 {
  %2 = alloca ptr, align 8
  store ptr %0, ptr %2, align 8, !tbaa !39
  %3 = load ptr, ptr %2, align 8
  %4 = getelementptr inbounds nuw %"class.google::protobuf::internal::WrappedMutex", ptr %3, i32 0, i32 0
  call void @_ZNSt5mutex6unlockEv(ptr noundef nonnull align 8 dereferenceable(40) %4)
  ret void
}

; Function Attrs: mustprogress uwtable
define linkonce_odr hidden void @_ZN6google8protobuf8internal12WrappedMutex4LockEv(ptr noundef nonnull align 8 dereferenceable(40) %0) #7 comdat align 2 {
  %2 = alloca ptr, align 8
  store ptr %0, ptr %2, align 8, !tbaa !39
  %3 = load ptr, ptr %2, align 8
  %4 = getelementptr inbounds nuw %"class.google::protobuf::internal::WrappedMutex", ptr %3, i32 0, i32 0
  call void @_ZNSt5mutex4lockEv(ptr noundef nonnull align 8 dereferenceable(40) %4)
  ret void
}

; Function Attrs: mustprogress nounwind uwtable
define linkonce_odr hidden void @_ZNK6google8protobuf8internal12MapFieldBase11ConstAccessEv(ptr noundef nonnull align 8 dereferenceable(68) %0) #4 comdat align 2 {
  %2 = alloca ptr, align 8
  store ptr %0, ptr %2, align 8, !tbaa !8
  ret void
}

; Function Attrs: mustprogress uwtable
define hidden noundef i64 @_ZNK6google8protobuf8internal12MapFieldBase26SpaceUsedExcludingSelfLongEv(ptr noundef nonnull align 8 dereferenceable(68) %0) #7 align 2 {
  %2 = alloca ptr, align 8
  %3 = alloca i64, align 8
  store ptr %0, ptr %2, align 8, !tbaa !8
  %4 = load ptr, ptr %2, align 8
  call void @_ZNK6google8protobuf8internal12MapFieldBase11ConstAccessEv(ptr noundef nonnull align 8 dereferenceable(68) %4)
  %5 = getelementptr inbounds nuw %"class.google::protobuf::internal::MapFieldBase", ptr %4, i32 0, i32 3
  call void @_ZN6google8protobuf8internal12WrappedMutex4LockEv(ptr noundef nonnull align 8 dereferenceable(40) %5)
  call void @llvm.lifetime.start.p0(i64 8, ptr %3) #3
  %6 = load ptr, ptr %4, align 8, !tbaa !18
  %7 = getelementptr inbounds ptr, ptr %6, i64 14
  %8 = load ptr, ptr %7, align 8
  %9 = call noundef i64 %8(ptr noundef nonnull align 8 dereferenceable(68) %4)
  store i64 %9, ptr %3, align 8, !tbaa !37
  %10 = getelementptr inbounds nuw %"class.google::protobuf::internal::MapFieldBase", ptr %4, i32 0, i32 3
  call void @_ZN6google8protobuf8internal12WrappedMutex6UnlockEv(ptr noundef nonnull align 8 dereferenceable(40) %10)
  call void @_ZNK6google8protobuf8internal12MapFieldBase11ConstAccessEv(ptr noundef nonnull align 8 dereferenceable(68) %4)
  %11 = load i64, ptr %3, align 8, !tbaa !37
  call void @llvm.lifetime.end.p0(i64 8, ptr %3) #3
  ret i64 %11
}