; Function Attrs: mustprogress uwtable
define hidden noundef i64 @_ZNK6google8protobuf8internal12MapFieldBase26SpaceUsedExcludingSelfLongEv(ptr noundef nonnull align 8 dereferenceable(68) %0) local_unnamed_addr #6 align 2 {
  %2 = getelementptr inbounds nuw i8, ptr %0, i64 24
  %3 = tail call noundef i32 @pthread_mutex_lock(ptr noundef nonnull align 8 dereferenceable(40) %2) #29
  %.not.i.i = icmp eq i32 %3, 0
  br i1 %.not.i.i, label %_ZN6google8protobuf8internal12WrappedMutex4LockEv.exit, label %4

4:                                                ; preds = %1
  tail call void @_ZSt20__throw_system_errori(i32 noundef %3) #30
  unreachable

_ZN6google8protobuf8internal12WrappedMutex4LockEv.exit: ; preds = %1
  %5 = load ptr, ptr %0, align 8, !tbaa !15
  %6 = getelementptr inbounds nuw i8, ptr %5, i64 112
  %7 = load ptr, ptr %6, align 8
  %8 = tail call noundef i64 %7(ptr noundef nonnull align 8 dereferenceable(68) %0)
  %9 = tail call noundef i32 @pthread_mutex_unlock(ptr noundef nonnull align 8 dereferenceable(40) %2) #29
  ret i64 %8
}